target datalayout = "e-m:e-p270:32:32-p271:32:32-p272:64:64-i64:64-i128:128-f80:128-n8:16:32:64-S128"
target triple = "x86_64-pc-linux-gnu"

; Function Attrs: nounwind uwtable
define internal zeroext i1 @string_matches_pattern(ptr noundef %0, ptr noundef %1) #0 {
  %3 = alloca i1, align 1
  %4 = alloca ptr, align 8
  %5 = alloca ptr, align 8
  store ptr %0, ptr %4, align 8
  store ptr %1, ptr %5, align 8
  br label %6

6:                                                ; preds = %80, %2
  %7 = load ptr, ptr %4, align 8
  %8 = load i8, ptr %7, align 1
  %9 = sext i8 %8 to i32
  %10 = icmp ne i32 %9, 0
  br i1 %10, label %11, label %16

11:                                               ; preds = %6
  %12 = load ptr, ptr %5, align 8
  %13 = load i8, ptr %12, align 1
  %14 = sext i8 %13 to i32
  %15 = icmp ne i32 %14, 0
  br label %16

16:                                               ; preds = %11, %6
  %17 = phi i1 [ false, %6 ], [ %15, %11 ]
  br i1 %17, label %18, label %85

18:                                               ; preds = %16
  %19 = load ptr, ptr %5, align 8
  %20 = load i8, ptr %19, align 1
  %21 = sext i8 %20 to i32
  %22 = icmp eq i32 %21, 46
  br i1 %22, label %23, label %65

23:                                               ; preds = %18
  %24 = load ptr, ptr %5, align 8
  %25 = getelementptr inbounds i8, ptr %24, i64 1
  %26 = load i8, ptr %25, align 1
  %27 = sext i8 %26 to i32
  %28 = icmp eq i32 %27, 42
  br i1 %28, label %29, label %65

29:                                               ; preds = %23
  %30 = load ptr, ptr %5, align 8
  %31 = getelementptr inbounds i8, ptr %30, i64 2
  store ptr %31, ptr %5, align 8
  %32 = load ptr, ptr %5, align 8
  %33 = load i8, ptr %32, align 1
  %34 = sext i8 %33 to i32
  %35 = icmp eq i32 %34, 0
  br i1 %35, label %36, label %37

36:                                               ; preds = %29
  store i1 true, ptr %3, align 1
  br label %115

37:                                               ; preds = %29
  br label %38

38:                                               ; preds = %61, %37
  %39 = load ptr, ptr %4, align 8
  %40 = load i8, ptr %39, align 1
  %41 = icmp ne i8 %40, 0
  br i1 %41, label %42, label %64

42:                                               ; preds = %38
  %43 = load ptr, ptr %4, align 8
  %44 = load i8, ptr %43, align 1
  %45 = sext i8 %44 to i32
  %46 = load ptr, ptr %5, align 8
  %47 = load i8, ptr %46, align 1
  %48 = sext i8 %47 to i32
  %49 = icmp eq i32 %45, %48
  br i1 %49, label %55, label %50

50:                                               ; preds = %42
  %51 = load ptr, ptr %5, align 8
  %52 = load i8, ptr %51, align 1
  %53 = sext i8 %52 to i32
  %54 = icmp eq i32 %53, 46
  br i1 %54, label %55, label %61

55:                                               ; preds = %50, %42
  %56 = load ptr, ptr %4, align 8
  %57 = load ptr, ptr %5, align 8
  %58 = call zeroext i1 @string_matches_pattern(ptr noundef %56, ptr noundef %57)
  br i1 %58, label %59, label %60

59:                                               ; preds = %55
  store i1 true, ptr %3, align 1
  br label %115

60:                                               ; preds = %55
  br label %61

61:                                               ; preds = %60, %50
  %62 = load ptr, ptr %4, align 8
  %63 = getelementptr inbounds nuw i8, ptr %62, i32 1
  store ptr %63, ptr %4, align 8
  br label %38, !llvm.loop !32

64:                                               ; preds = %38
  store i1 false, ptr %3, align 1
  br label %115

65:                                               ; preds = %23, %18
  %66 = load ptr, ptr %5, align 8
  %67 = load i8, ptr %66, align 1
  %68 = sext i8 %67 to i32
  %69 = icmp ne i32 %68, 46
  br i1 %69, label %70, label %79

70:                                               ; preds = %65
  %71 = load ptr, ptr %4, align 8
  %72 = load i8, ptr %71, align 1
  %73 = sext i8 %72 to i32
  %74 = load ptr, ptr %5, align 8
  %75 = load i8, ptr %74, align 1
  %76 = sext i8 %75 to i32
  %77 = icmp ne i32 %73, %76
  br i1 %77, label %78, label %79

78:                                               ; preds = %70
  store i1 false, ptr %3, align 1
  br label %115

79:                                               ; preds = %70, %65
  br label %80

80:                                               ; preds = %79
  %81 = load ptr, ptr %4, align 8
  %82 = getelementptr inbounds nuw i8, ptr %81, i32 1
  store ptr %82, ptr %4, align 8
  %83 = load ptr, ptr %5, align 8
  %84 = getelementptr inbounds nuw i8, ptr %83, i32 1
  store ptr %84, ptr %5, align 8
  br label %6, !llvm.loop !33

85:                                               ; preds = %16
  %86 = load ptr, ptr %5, align 8
  %87 = load i8, ptr %86, align 1
  %88 = sext i8 %87 to i32
  %89 = icmp eq i32 %88, 0
  br i1 %89, label %90, label %91

90:                                               ; preds = %85
  store i1 true, ptr %3, align 1
  br label %115

91:                                               ; preds = %85
  br label %92

92:                                               ; preds = %105, %91
  %93 = load ptr, ptr %5, align 8
  %94 = load i8, ptr %93, align 1
  %95 = sext i8 %94 to i32
  %96 = icmp eq i32 %95, 46
  br i1 %96, label %97, label %103

97:                                               ; preds = %92
  %98 = load ptr, ptr %5, align 8
  %99 = getelementptr inbounds i8, ptr %98, i64 1
  %100 = load i8, ptr %99, align 1
  %101 = sext i8 %100 to i32
  %102 = icmp eq i32 %101, 42
  br label %103

103:                                              ; preds = %97, %92
  %104 = phi i1 [ false, %92 ], [ %102, %97 ]
  br i1 %104, label %105, label %108

105:                                              ; preds = %103
  %106 = load ptr, ptr %5, align 8
  %107 = getelementptr inbounds i8, ptr %106, i64 2
  store ptr %107, ptr %5, align 8
  br label %92, !llvm.loop !34

108:                                              ; preds = %103
  %109 = load ptr, ptr %5, align 8
  %110 = load i8, ptr %109, align 1
  %111 = sext i8 %110 to i32
  %112 = icmp eq i32 %111, 0
  br i1 %112, label %113, label %114

113:                                              ; preds = %108
  store i1 true, ptr %3, align 1
  br label %115

114:                                              ; preds = %108
  store i1 false, ptr %3, align 1
  br label %115

115:                                              ; preds = %114, %113, %90, %78, %64, %59, %36
  %116 = load i1, ptr %3, align 1
  ret i1 %116
}