; Function Attrs: nofree nosync nounwind memory(argmem: read) uwtable
define internal fastcc zeroext i1 @string_matches_pattern(ptr noundef readonly captures(none) %0, ptr noundef readonly captures(none) %1) unnamed_addr #16 {
  %3 = load i8, ptr %0, align 1
  %.not46 = icmp eq i8 %3, 0
  br i1 %.not46, label %.critedge, label %.lr.ph

.lr.ph:                                           ; preds = %2, %.thread
  %4 = phi i8 [ %27, %.thread ], [ %3, %2 ]
  %.048 = phi ptr [ %26, %.thread ], [ %1, %2 ]
  %.02647 = phi ptr [ %25, %.thread ], [ %0, %2 ]
  %5 = load i8, ptr %.048, align 1
  switch i8 %5, label %24 [
    i8 0, label %.critedge.thread
    i8 46, label %6
  ]

6:                                                ; preds = %.lr.ph
  %7 = getelementptr inbounds nuw i8, ptr %.048, i64 1
  %8 = load i8, ptr %7, align 1
  %9 = icmp eq i8 %8, 42
  br i1 %9, label %10, label %.thread

10:                                               ; preds = %6
  %11 = getelementptr inbounds nuw i8, ptr %.048, i64 2
  %12 = load i8, ptr %11, align 1
  %.fr61 = freeze i8 %12
  switch i8 %.fr61, label %.lr.ph51.split [
    i8 0, label %.critedge.thread
    i8 46, label %.lr.ph51.split.us
  ]

.lr.ph51.split.us:                                ; preds = %10, %14
  %.12750.us = phi ptr [ %15, %14 ], [ %.02647, %10 ]
  %13 = tail call fastcc zeroext i1 @string_matches_pattern(ptr noundef nonnull %.12750.us, ptr noundef nonnull %11)
  br i1 %13, label %.critedge.thread, label %14

14:                                               ; preds = %.lr.ph51.split.us
  %15 = getelementptr inbounds nuw i8, ptr %.12750.us, i64 1
  %16 = load i8, ptr %15, align 1
  %.not36.us = icmp eq i8 %16, 0
  br i1 %.not36.us, label %.critedge.thread, label %.lr.ph51.split.us, !llvm.loop !33

.lr.ph51.split:                                   ; preds = %10, %21
  %17 = phi i8 [ %23, %21 ], [ %4, %10 ]
  %.12750 = phi ptr [ %22, %21 ], [ %.02647, %10 ]
  %18 = icmp eq i8 %17, %.fr61
  br i1 %18, label %19, label %21

19:                                               ; preds = %.lr.ph51.split
  %20 = tail call fastcc zeroext i1 @string_matches_pattern(ptr noundef nonnull %.12750, ptr noundef nonnull %11)
  br i1 %20, label %.critedge.thread, label %21

21:                                               ; preds = %.lr.ph51.split, %19
  %22 = getelementptr inbounds nuw i8, ptr %.12750, i64 1
  %23 = load i8, ptr %22, align 1
  %.not36 = icmp eq i8 %23, 0
  br i1 %.not36, label %.critedge.thread, label %.lr.ph51.split, !llvm.loop !33

24:                                               ; preds = %.lr.ph
  %.not35 = icmp eq i8 %4, %5
  br i1 %.not35, label %.thread, label %.critedge.thread

.thread:                                          ; preds = %6, %24
  %25 = getelementptr inbounds nuw i8, ptr %.02647, i64 1
  %26 = getelementptr inbounds nuw i8, ptr %.048, i64 1
  %27 = load i8, ptr %25, align 1
  %.not = icmp eq i8 %27, 0
  br i1 %.not, label %.critedge, label %.lr.ph, !llvm.loop !34

.critedge:                                        ; preds = %.thread, %2
  %.0.lcssa = phi ptr [ %1, %2 ], [ %26, %.thread ]
  %.pr = load i8, ptr %.0.lcssa, align 1
  switch i8 %.pr, label %.critedge2 [
    i8 0, label %.critedge.thread
    i8 46, label %.lr.ph57
  ]

.lr.ph57:                                         ; preds = %.critedge, %31
  %.156 = phi ptr [ %32, %31 ], [ %.0.lcssa, %.critedge ]
  %28 = getelementptr inbounds nuw i8, ptr %.156, i64 1
  %29 = load i8, ptr %28, align 1
  %30 = icmp eq i8 %29, 42
  br i1 %30, label %31, label %.critedge2

31:                                               ; preds = %.lr.ph57
  %32 = getelementptr inbounds nuw i8, ptr %.156, i64 2
  %.pr38 = load i8, ptr %32, align 1
  %33 = icmp eq i8 %.pr38, 46
  br i1 %33, label %.lr.ph57, label %.critedge2, !llvm.loop !35

.critedge2:                                       ; preds = %.lr.ph57, %31, %.critedge
  %.lcssa = phi i8 [ %.pr, %.critedge ], [ %.pr38, %31 ], [ 46, %.lr.ph57 ]
  %34 = icmp eq i8 %.lcssa, 0
  br label %.critedge.thread

.critedge.thread:                                 ; preds = %.lr.ph, %24, %.lr.ph51.split.us, %14, %19, %21, %10, %.critedge, %.critedge2
  %.028 = phi i1 [ true, %10 ], [ true, %.critedge ], [ %34, %.critedge2 ], [ true, %19 ], [ false, %21 ], [ %13, %14 ], [ %13, %.lr.ph51.split.us ], [ true, %.lr.ph ], [ false, %24 ]
  ret i1 %.028
}